; Function Attrs: nounwind uwtable
define dso_local noundef zeroext i1 @client_req_get_int(ptr noundef readonly captures(none) %0, ptr noundef %1, ptr noundef writeonly captures(none) %2) local_unnamed_addr #2 {
  %4 = getelementptr inbounds nuw i8, ptr %0, i64 44
  %5 = load i32, ptr %4, align 4
  %.not11.i = icmp eq i32 %5, 0
  br i1 %.not11.i, label %_client_req_get_val.exit.thread, label %.lr.ph.i

.lr.ph.i:                                         ; preds = %3
  %6 = getelementptr inbounds nuw i8, ptr %0, i64 32
  br label %11

7:                                                ; preds = %11
  %indvars.iv.next.i = add nuw nsw i64 %indvars.iv.i, 1
  %8 = load i32, ptr %4, align 4
  %9 = zext i32 %8 to i64
  %10 = icmp samesign ult i64 %indvars.iv.next.i, %9
  br i1 %10, label %11, label %_client_req_get_val.exit.thread, !llvm.loop !19

11:                                               ; preds = %7, %.lr.ph.i
  %indvars.iv.i = phi i64 [ 0, %.lr.ph.i ], [ %indvars.iv.next.i, %7 ]
  %12 = load ptr, ptr %6, align 8
  %13 = shl nuw nsw i64 %indvars.iv.i, 1
  %14 = getelementptr inbounds nuw ptr, ptr %12, i64 %13
  %15 = load ptr, ptr %14, align 8
  %16 = tail call i32 @slurm_xstrcmp(ptr noundef %1, ptr noundef %15) #11
  %.not.i = icmp eq i32 %16, 0
  br i1 %.not.i, label %_client_req_get_val.exit, label %7

_client_req_get_val.exit:                         ; preds = %11
  %17 = load ptr, ptr %6, align 8
  %18 = and i64 %13, 4294967294
  %19 = or disjoint i64 %18, 1
  %20 = getelementptr inbounds nuw ptr, ptr %17, i64 %19
  %21 = load ptr, ptr %20, align 8
  %.not = icmp eq ptr %21, null
  br i1 %.not, label %_client_req_get_val.exit.thread, label %22

22:                                               ; preds = %_client_req_get_val.exit
  %23 = tail call i64 @strtol(ptr noundef nonnull captures(none) %21, ptr noundef null, i32 noundef 10) #11
  %24 = trunc i64 %23 to i32
  store i32 %24, ptr %2, align 4
  br label %_client_req_get_val.exit.thread

_client_req_get_val.exit.thread:                  ; preds = %7, %3, %_client_req_get_val.exit, %22
  %25 = phi i1 [ false, %_client_req_get_val.exit ], [ true, %22 ], [ false, %3 ], [ false, %7 ]
  ret i1 %25
}